target datalayout = "e-m:e-p270:32:32-p271:32:32-p272:64:64-i64:64-i128:128-f80:128-n8:16:32:64-S128"
target triple = "x86_64-pc-linux-gnu"

@.str = private unnamed_addr constant [7 x i8] c"%%%02x\00", align 1

; Function Attrs: nounwind uwtable
define i64 @encoded_size(ptr noundef %0) #0 {
  %2 = alloca ptr, align 8
  %3 = alloca ptr, align 8
  %4 = alloca i64, align 8
  store ptr %0, ptr %2, align 8, !tbaa !3
  call void @llvm.lifetime.start.p0(i64 8, ptr %3) #8
  call void @llvm.lifetime.start.p0(i64 8, ptr %4) #8
  store i64 0, ptr %4, align 8, !tbaa !21
  %5 = load ptr, ptr %2, align 8, !tbaa !3
  store ptr %5, ptr %3, align 8, !tbaa !3
  br label %6

6:                                                ; preds = %27, %1
  %7 = load ptr, ptr %3, align 8, !tbaa !3
  %8 = load i8, ptr %7, align 1, !tbaa !18
  %9 = sext i8 %8 to i32
  %10 = icmp ne i32 %9, 0
  br i1 %10, label %11, label %30

11:                                               ; preds = %6
  %12 = call ptr @__ctype_b_loc() #9
  %13 = load ptr, ptr %12, align 8, !tbaa !27
  %14 = load ptr, ptr %3, align 8, !tbaa !3
  %15 = load i8, ptr %14, align 1, !tbaa !18
  %16 = sext i8 %15 to i32
  %17 = sext i32 %16 to i64
  %18 = getelementptr inbounds i16, ptr %13, i64 %17
  %19 = load i16, ptr %18, align 2, !tbaa !29
  %20 = zext i16 %19 to i32
  %21 = and i32 %20, 8
  %22 = icmp ne i32 %21, 0
  %23 = select i1 %22, i32 1, i32 3
  %24 = sext i32 %23 to i64
  %25 = load i64, ptr %4, align 8, !tbaa !21
  %26 = add i64 %25, %24
  store i64 %26, ptr %4, align 8, !tbaa !21
  br label %27

27:                                               ; preds = %11
  %28 = load ptr, ptr %3, align 8, !tbaa !3
  %29 = getelementptr inbounds nuw i8, ptr %28, i32 1
  store ptr %29, ptr %3, align 8, !tbaa !3
  br label %6

30:                                               ; preds = %6
  %31 = load i64, ptr %4, align 8, !tbaa !21
  call void @llvm.lifetime.end.p0(i64 8, ptr %4) #8
  call void @llvm.lifetime.end.p0(i64 8, ptr %3) #8
  ret i64 %31
}

; Function Attrs: nounwind uwtable
define ptr @encode_data(ptr noundef %0) #0 {
  %2 = alloca ptr, align 8
  %3 = alloca ptr, align 8
  %4 = alloca ptr, align 8
  %5 = alloca i64, align 8
  %6 = alloca i64, align 8
  %7 = alloca i64, align 8
  %8 = alloca i32, align 4
  store ptr %0, ptr %3, align 8, !tbaa !3
  call void @llvm.lifetime.start.p0(i64 8, ptr %4) #8
  call void @llvm.lifetime.start.p0(i64 8, ptr %5) #8
  call void @llvm.lifetime.start.p0(i64 8, ptr %6) #8
  call void @llvm.lifetime.start.p0(i64 8, ptr %7) #8
  %9 = load ptr, ptr %3, align 8, !tbaa !3
  %10 = call i64 @encoded_size(ptr noundef %9)
  store i64 %10, ptr %5, align 8, !tbaa !21
  %11 = load i64, ptr %5, align 8, !tbaa !21
  %12 = icmp eq i64 %11, 0
  br i1 %12, label %13, label %14

13:                                               ; preds = %1
  store ptr null, ptr %2, align 8
  store i32 1, ptr %8, align 4
  br label %70

14:                                               ; preds = %1
  %15 = load i64, ptr %5, align 8, !tbaa !21
  %16 = add i64 %15, 1
  %17 = call ptr @cli_max_calloc(i64 noundef 1, i64 noundef %16)
  store ptr %17, ptr %4, align 8, !tbaa !3
  %18 = load ptr, ptr %4, align 8, !tbaa !3
  %19 = icmp ne ptr %18, null
  br i1 %19, label %21, label %20

20:                                               ; preds = %14
  store ptr null, ptr %2, align 8
  store i32 1, ptr %8, align 4
  br label %70

21:                                               ; preds = %14
  store i64 0, ptr %6, align 8, !tbaa !21
  store i64 0, ptr %7, align 8, !tbaa !21
  br label %22

22:                                               ; preds = %65, %21
  %23 = load ptr, ptr %3, align 8, !tbaa !3
  %24 = load i64, ptr %6, align 8, !tbaa !21
  %25 = getelementptr inbounds nuw i8, ptr %23, i64 %24
  %26 = load i8, ptr %25, align 1, !tbaa !18
  %27 = sext i8 %26 to i32
  %28 = icmp ne i32 %27, 0
  br i1 %28, label %29, label %68

29:                                               ; preds = %22
  %30 = call ptr @__ctype_b_loc() #9
  %31 = load ptr, ptr %30, align 8, !tbaa !27
  %32 = load ptr, ptr %3, align 8, !tbaa !3
  %33 = load i64, ptr %6, align 8, !tbaa !21
  %34 = getelementptr inbounds nuw i8, ptr %32, i64 %33
  %35 = load i8, ptr %34, align 1, !tbaa !18
  %36 = sext i8 %35 to i32
  %37 = sext i32 %36 to i64
  %38 = getelementptr inbounds i16, ptr %31, i64 %37
  %39 = load i16, ptr %38, align 2, !tbaa !29
  %40 = zext i16 %39 to i32
  %41 = and i32 %40, 8
  %42 = icmp ne i32 %41, 0
  br i1 %42, label %43, label %52

43:                                               ; preds = %29
  %44 = load ptr, ptr %3, align 8, !tbaa !3
  %45 = load i64, ptr %6, align 8, !tbaa !21
  %46 = getelementptr inbounds nuw i8, ptr %44, i64 %45
  %47 = load i8, ptr %46, align 1, !tbaa !18
  %48 = load ptr, ptr %4, align 8, !tbaa !3
  %49 = load i64, ptr %7, align 8, !tbaa !21
  %50 = add i64 %49, 1
  store i64 %50, ptr %7, align 8, !tbaa !21
  %51 = getelementptr inbounds nuw i8, ptr %48, i64 %49
  store i8 %47, ptr %51, align 1, !tbaa !18
  br label %64

52:                                               ; preds = %29
  %53 = load ptr, ptr %4, align 8, !tbaa !3
  %54 = load i64, ptr %7, align 8, !tbaa !21
  %55 = getelementptr inbounds nuw i8, ptr %53, i64 %54
  %56 = load ptr, ptr %3, align 8, !tbaa !3
  %57 = load i64, ptr %6, align 8, !tbaa !21
  %58 = getelementptr inbounds nuw i8, ptr %56, i64 %57
  %59 = load i8, ptr %58, align 1, !tbaa !18
  %60 = sext i8 %59 to i32
  %61 = call i32 (ptr, ptr, ...) @sprintf(ptr noundef %55, ptr noundef @.str, i32 noundef %60) #8
  %62 = load i64, ptr %7, align 8, !tbaa !21
  %63 = add i64 %62, 3
  store i64 %63, ptr %7, align 8, !tbaa !21
  br label %64

64:                                               ; preds = %52, %43
  br label %65

65:                                               ; preds = %64
  %66 = load i64, ptr %6, align 8, !tbaa !21
  %67 = add i64 %66, 1
  store i64 %67, ptr %6, align 8, !tbaa !21
  br label %22

68:                                               ; preds = %22
  %69 = load ptr, ptr %4, align 8, !tbaa !3
  store ptr %69, ptr %2, align 8
  store i32 1, ptr %8, align 4
  br label %70

70:                                               ; preds = %68, %20, %13
  call void @llvm.lifetime.end.p0(i64 8, ptr %7) #8
  call void @llvm.lifetime.end.p0(i64 8, ptr %6) #8
  call void @llvm.lifetime.end.p0(i64 8, ptr %5) #8
  call void @llvm.lifetime.end.p0(i64 8, ptr %4) #8
  %71 = load ptr, ptr %2, align 8
  ret ptr %71
}