; Function Attrs: nounwind uwtable
define ptr @encode_data(ptr noundef readonly captures(none) %0) local_unnamed_addr #0 {
  %2 = load i8, ptr %0, align 1, !tbaa !23
  %.not8.i = icmp eq i8 %2, 0
  br i1 %.not8.i, label %encoded_size.exit.thread, label %.lr.ph.i

.lr.ph.i:                                         ; preds = %1
  %3 = tail call ptr @__ctype_b_loc() #11
  %4 = load ptr, ptr %3, align 8, !tbaa !24
  br label %5

5:                                                ; preds = %5, %.lr.ph.i
  %6 = phi i8 [ %2, %.lr.ph.i ], [ %14, %5 ]
  %.010.i = phi i64 [ 0, %.lr.ph.i ], [ %12, %5 ]
  %.059.i = phi ptr [ %0, %.lr.ph.i ], [ %13, %5 ]
  %7 = sext i8 %6 to i64
  %8 = getelementptr inbounds i16, ptr %4, i64 %7
  %9 = load i16, ptr %8, align 2, !tbaa !26
  %10 = and i16 %9, 8
  %.not7.i = icmp eq i16 %10, 0
  %11 = select i1 %.not7.i, i64 3, i64 1
  %12 = add i64 %11, %.010.i
  %13 = getelementptr inbounds nuw i8, ptr %.059.i, i64 1
  %14 = load i8, ptr %13, align 1, !tbaa !23
  %.not.i = icmp eq i8 %14, 0
  br i1 %.not.i, label %encoded_size.exit, label %5

encoded_size.exit:                                ; preds = %5
  %15 = icmp eq i64 %12, 0
  br i1 %15, label %encoded_size.exit.thread, label %16

16:                                               ; preds = %encoded_size.exit
  %17 = add i64 %12, 1
  %18 = tail call ptr @cli_max_calloc(i64 noundef 1, i64 noundef %17) #10
  %.not = icmp eq ptr %18, null
  br i1 %.not, label %encoded_size.exit.thread, label %.preheader

.preheader:                                       ; preds = %16
  %19 = load i8, ptr %0, align 1, !tbaa !23
  %.not2427 = icmp eq i8 %19, 0
  br i1 %.not2427, label %encoded_size.exit.thread, label %.lr.ph

.lr.ph:                                           ; preds = %.preheader, %33
  %20 = phi i8 [ %36, %33 ], [ %19, %.preheader ]
  %.029 = phi i64 [ %.1, %33 ], [ 0, %.preheader ]
  %.01928 = phi i64 [ %34, %33 ], [ 0, %.preheader ]
  %21 = load ptr, ptr %3, align 8, !tbaa !24
  %22 = sext i8 %20 to i64
  %23 = getelementptr inbounds i16, ptr %21, i64 %22
  %24 = load i16, ptr %23, align 2, !tbaa !26
  %25 = and i16 %24, 8
  %.not25 = icmp eq i16 %25, 0
  %26 = getelementptr inbounds nuw i8, ptr %18, i64 %.029
  br i1 %.not25, label %29, label %27

27:                                               ; preds = %.lr.ph
  %28 = add i64 %.029, 1
  store i8 %20, ptr %26, align 1, !tbaa !23
  br label %33

29:                                               ; preds = %.lr.ph
  %30 = sext i8 %20 to i32
  %31 = tail call i32 (ptr, ptr, ...) @sprintf(ptr noundef nonnull dereferenceable(1) %26, ptr noundef nonnull dereferenceable(1) @.str, i32 noundef %30) #10
  %32 = add i64 %.029, 3
  br label %33

33:                                               ; preds = %27, %29
  %.1 = phi i64 [ %28, %27 ], [ %32, %29 ]
  %34 = add i64 %.01928, 1
  %35 = getelementptr inbounds nuw i8, ptr %0, i64 %34
  %36 = load i8, ptr %35, align 1, !tbaa !23
  %.not24 = icmp eq i8 %36, 0
  br i1 %.not24, label %encoded_size.exit.thread, label %.lr.ph

encoded_size.exit.thread:                         ; preds = %33, %.preheader, %1, %16, %encoded_size.exit
  %.020 = phi ptr [ null, %encoded_size.exit ], [ null, %16 ], [ null, %1 ], [ %18, %.preheader ], [ %18, %33 ]
  ret ptr %.020
}